target datalayout = "e-m:e-p270:32:32-p271:32:32-p272:64:64-i64:64-i128:128-f80:128-n8:16:32:64-S128"
target triple = "x86_64-pc-linux-gnu"

%"class.icu_77::number::Scale" = type <{ i32, [4 x i8], ptr, i32, [4 x i8] }>
%"class.icu_77::LocalPointer" = type { %"class.icu_77::LocalPointerBase" }
%"class.icu_77::LocalPointerBase" = type { ptr }

@_ZN6icu_776number5ScaleC1EiPNS0_4impl6DecNumE = unnamed_addr alias void (ptr, i32, ptr), ptr @_ZN6icu_776number5ScaleC2EiPNS0_4impl6DecNumE

; Function Attrs: mustprogress nounwind uwtable
define linkonce_odr void @_ZN6icu_7716LocalPointerBaseINS_6number4impl6DecNumEED2Ev(ptr noundef nonnull align 8 dereferenceable(8) %0) unnamed_addr #0 comdat align 2 {
  %2 = alloca ptr, align 8
  store ptr %0, ptr %2, align 8, !tbaa !37
  ret void
}

; Function Attrs: inlinehint mustprogress nounwind uwtable
define internal noundef signext i8 @_ZL9U_SUCCESS10UErrorCode(i32 noundef %0) #2 {
  %2 = alloca i32, align 4
  store i32 %0, ptr %2, align 4, !tbaa !15
  %3 = load i32, ptr %2, align 4, !tbaa !15
  %4 = icmp sle i32 %3, 0
  %5 = zext i1 %4 to i8
  ret i8 %5
}

; Function Attrs: mustprogress nounwind uwtable
define linkonce_odr void @_ZN6icu_7716LocalPointerBaseINS_6number4impl6DecNumEEC2EPS3_(ptr noundef nonnull align 8 dereferenceable(8) %0, ptr noundef %1) unnamed_addr #0 comdat align 2 {
  %3 = alloca ptr, align 8
  %4 = alloca ptr, align 8
  store ptr %0, ptr %3, align 8, !tbaa !37
  store ptr %1, ptr %4, align 8, !tbaa !25
  %5 = load ptr, ptr %3, align 8
  %6 = getelementptr inbounds nuw %"class.icu_77::LocalPointerBase", ptr %5, i32 0, i32 0
  %7 = load ptr, ptr %4, align 8, !tbaa !25
  store ptr %7, ptr %6, align 8, !tbaa !39
  ret void
}

; Function Attrs: mustprogress nounwind uwtable
define linkonce_odr noundef ptr @_ZN6icu_7716LocalPointerBaseINS_6number4impl6DecNumEE6orphanEv(ptr noundef nonnull align 8 dereferenceable(8) %0) #0 comdat align 2 {
  %2 = alloca ptr, align 8
  %3 = alloca ptr, align 8
  store ptr %0, ptr %2, align 8, !tbaa !37
  %4 = load ptr, ptr %2, align 8
  call void @llvm.lifetime.start.p0(i64 8, ptr %3) #10
  %5 = getelementptr inbounds nuw %"class.icu_77::LocalPointerBase", ptr %4, i32 0, i32 0
  %6 = load ptr, ptr %5, align 8, !tbaa !39
  store ptr %6, ptr %3, align 8, !tbaa !25
  %7 = getelementptr inbounds nuw %"class.icu_77::LocalPointerBase", ptr %4, i32 0, i32 0
  store ptr null, ptr %7, align 8, !tbaa !39
  %8 = load ptr, ptr %3, align 8, !tbaa !25
  call void @llvm.lifetime.end.p0(i64 8, ptr %3) #10
  ret ptr %8
}

; Function Attrs: mustprogress nounwind uwtable
define linkonce_odr noundef ptr @_ZNK6icu_7716LocalPointerBaseINS_6number4impl6DecNumEEptEv(ptr noundef nonnull align 8 dereferenceable(8) %0) #0 comdat align 2 {
  %2 = alloca ptr, align 8
  store ptr %0, ptr %2, align 8, !tbaa !37
  %3 = load ptr, ptr %2, align 8
  %4 = getelementptr inbounds nuw %"class.icu_77::LocalPointerBase", ptr %3, i32 0, i32 0
  %5 = load ptr, ptr %4, align 8, !tbaa !39
  ret ptr %5
}

; Function Attrs: mustprogress nounwind uwtable
define linkonce_odr void @_ZN6icu_776number5ScaleC2E10UErrorCode(ptr noundef nonnull align 8 dereferenceable(20) %0, i32 noundef %1) unnamed_addr #0 comdat align 2 {
  %3 = alloca ptr, align 8
  %4 = alloca i32, align 4
  store ptr %0, ptr %3, align 8, !tbaa !23
  store i32 %1, ptr %4, align 4, !tbaa !15
  %5 = load ptr, ptr %3, align 8
  %6 = getelementptr inbounds nuw %"class.icu_77::number::Scale", ptr %5, i32 0, i32 0
  store i32 0, ptr %6, align 8, !tbaa !27
  %7 = getelementptr inbounds nuw %"class.icu_77::number::Scale", ptr %5, i32 0, i32 2
  store ptr null, ptr %7, align 8, !tbaa !29
  %8 = getelementptr inbounds nuw %"class.icu_77::number::Scale", ptr %5, i32 0, i32 3
  %9 = load i32, ptr %4, align 4, !tbaa !15
  store i32 %9, ptr %8, align 8, !tbaa !30
  ret void
}

; Function Attrs: inlinehint mustprogress nounwind uwtable
define internal noundef signext i8 @_ZL9U_FAILURE10UErrorCode(i32 noundef %0) #2 {
  %2 = alloca i32, align 4
  store i32 %0, ptr %2, align 4, !tbaa !15
  %3 = load i32, ptr %2, align 4, !tbaa !15
  %4 = icmp sgt i32 %3, 0
  %5 = zext i1 %4 to i8
  ret i8 %5
}

; Function Attrs: mustprogress uwtable
define linkonce_odr void @_ZN6icu_7712LocalPointerINS_6number4impl6DecNumEEC2EPS3_R10UErrorCode(ptr noundef nonnull align 8 dereferenceable(8) %0, ptr noundef %1, ptr noundef nonnull align 4 dereferenceable(4) %2) unnamed_addr #1 comdat align 2 personality ptr @__gxx_personality_v0 {
  %4 = alloca ptr, align 8
  %5 = alloca ptr, align 8
  %6 = alloca ptr, align 8
  %7 = alloca ptr, align 8
  %8 = alloca i32, align 4
  store ptr %0, ptr %4, align 8, !tbaa !35
  store ptr %1, ptr %5, align 8, !tbaa !25
  store ptr %2, ptr %6, align 8, !tbaa !22
  %9 = load ptr, ptr %4, align 8
  %10 = load ptr, ptr %5, align 8, !tbaa !25
  call void @_ZN6icu_7716LocalPointerBaseINS_6number4impl6DecNumEEC2EPS3_(ptr noundef nonnull align 8 dereferenceable(8) %9, ptr noundef %10)
  %11 = load ptr, ptr %5, align 8, !tbaa !25
  %12 = icmp eq ptr %11, null
  br i1 %12, label %13, label %25

13:                                               ; preds = %3
  %14 = load ptr, ptr %6, align 8, !tbaa !22
  %15 = load i32, ptr %14, align 4, !tbaa !15
  %16 = invoke noundef signext i8 @_ZL9U_SUCCESS10UErrorCode(i32 noundef %15)
          to label %17 unwind label %21

17:                                               ; preds = %13
  %18 = icmp ne i8 %16, 0
  br i1 %18, label %19, label %25

19:                                               ; preds = %17
  %20 = load ptr, ptr %6, align 8, !tbaa !22
  store i32 7, ptr %20, align 4, !tbaa !15
  br label %25

21:                                               ; preds = %13
  %22 = landingpad { ptr, i32 }
          cleanup
  %23 = extractvalue { ptr, i32 } %22, 0
  store ptr %23, ptr %7, align 8
  %24 = extractvalue { ptr, i32 } %22, 1
  store i32 %24, ptr %8, align 4
  call void @_ZN6icu_7716LocalPointerBaseINS_6number4impl6DecNumEED2Ev(ptr noundef nonnull align 8 dereferenceable(8) %9) #10
  br label %26

25:                                               ; preds = %19, %17, %3
  ret void

26:                                               ; preds = %21
  %27 = load ptr, ptr %7, align 8
  %28 = load i32, ptr %8, align 4
  %29 = insertvalue { ptr, i32 } poison, ptr %27, 0
  %30 = insertvalue { ptr, i32 } %29, i32 %28, 1
  resume { ptr, i32 } %30
}

; Function Attrs: mustprogress uwtable
define void @_ZN6icu_776number5Scale8byDoubleEd(ptr dead_on_unwind noalias writable sret(%"class.icu_77::number::Scale") align 8 %0, double noundef %1) #1 align 2 personality ptr @__gxx_personality_v0 {
  %3 = alloca ptr, align 8
  %4 = alloca double, align 8
  %5 = alloca i32, align 4
  %6 = alloca %"class.icu_77::LocalPointer", align 8
  %7 = alloca i1, align 1
  %8 = alloca ptr, align 8
  %9 = alloca i32, align 4
  %10 = alloca i32, align 4
  store ptr %0, ptr %3, align 8
  store double %1, ptr %4, align 8, !tbaa !41
  call void @llvm.lifetime.start.p0(i64 4, ptr %5) #10
  store i32 0, ptr %5, align 4, !tbaa !15
  call void @llvm.lifetime.start.p0(i64 8, ptr %6) #10
  %11 = call noundef ptr @_ZN6icu_777UMemorynwEm(i64 noundef 96) #10
  %12 = icmp eq ptr %11, null
  store i1 false, ptr %7, align 1
  br i1 %12, label %15, label %13

13:                                               ; preds = %2
  store i1 true, ptr %7, align 1
  invoke void @_ZN6icu_776number4impl6DecNumC1Ev(ptr noundef nonnull align 8 dereferenceable(92) %11)
          to label %14 unwind label %24

14:                                               ; preds = %13
  br label %15

15:                                               ; preds = %14, %2
  %16 = phi ptr [ %11, %14 ], [ null, %2 ]
  call void @_ZN6icu_7712LocalPointerINS_6number4impl6DecNumEEC2EPS3_R10UErrorCode(ptr noundef nonnull align 8 dereferenceable(8) %6, ptr noundef %16, ptr noundef nonnull align 4 dereferenceable(4) %5)
  %17 = load i32, ptr %5, align 4, !tbaa !15
  %18 = invoke noundef signext i8 @_ZL9U_FAILURE10UErrorCode(i32 noundef %17)
          to label %19 unwind label %31

19:                                               ; preds = %15
  %20 = icmp ne i8 %18, 0
  br i1 %20, label %21, label %35

21:                                               ; preds = %19
  %22 = load i32, ptr %5, align 4, !tbaa !15
  invoke void @_ZN6icu_776number5ScaleC2E10UErrorCode(ptr noundef nonnull align 8 dereferenceable(20) %0, i32 noundef %22)
          to label %23 unwind label %31

23:                                               ; preds = %21
  store i32 1, ptr %10, align 4
  br label %51

24:                                               ; preds = %13
  %25 = landingpad { ptr, i32 }
          cleanup
  %26 = extractvalue { ptr, i32 } %25, 0
  store ptr %26, ptr %8, align 8
  %27 = extractvalue { ptr, i32 } %25, 1
  store i32 %27, ptr %9, align 4
  %28 = load i1, ptr %7, align 1
  br i1 %28, label %29, label %30

29:                                               ; preds = %24
  call void @_ZN6icu_777UMemorydlEPv(ptr noundef %11) #10
  br label %30

30:                                               ; preds = %29, %24
  br label %52

31:                                               ; preds = %49, %47, %44, %39, %37, %35, %21, %15
  %32 = landingpad { ptr, i32 }
          cleanup
  %33 = extractvalue { ptr, i32 } %32, 0
  store ptr %33, ptr %8, align 8
  %34 = extractvalue { ptr, i32 } %32, 1
  store i32 %34, ptr %9, align 4
  call void @_ZN6icu_7712LocalPointerINS_6number4impl6DecNumEED2Ev(ptr noundef nonnull align 8 dereferenceable(8) %6) #10
  br label %52

35:                                               ; preds = %19
  %36 = invoke noundef ptr @_ZNK6icu_7716LocalPointerBaseINS_6number4impl6DecNumEEptEv(ptr noundef nonnull align 8 dereferenceable(8) %6)
          to label %37 unwind label %31

37:                                               ; preds = %35
  %38 = load double, ptr %4, align 8, !tbaa !41
  invoke void @_ZN6icu_776number4impl6DecNum5setToEdR10UErrorCode(ptr noundef nonnull align 8 dereferenceable(92) %36, double noundef %38, ptr noundef nonnull align 4 dereferenceable(4) %5)
          to label %39 unwind label %31

39:                                               ; preds = %37
  %40 = load i32, ptr %5, align 4, !tbaa !15
  %41 = invoke noundef signext i8 @_ZL9U_FAILURE10UErrorCode(i32 noundef %40)
          to label %42 unwind label %31

42:                                               ; preds = %39
  %43 = icmp ne i8 %41, 0
  br i1 %43, label %44, label %47

44:                                               ; preds = %42
  %45 = load i32, ptr %5, align 4, !tbaa !15
  invoke void @_ZN6icu_776number5ScaleC2E10UErrorCode(ptr noundef nonnull align 8 dereferenceable(20) %0, i32 noundef %45)
          to label %46 unwind label %31

46:                                               ; preds = %44
  store i32 1, ptr %10, align 4
  br label %51

47:                                               ; preds = %42
  %48 = invoke noundef ptr @_ZN6icu_7716LocalPointerBaseINS_6number4impl6DecNumEE6orphanEv(ptr noundef nonnull align 8 dereferenceable(8) %6)
          to label %49 unwind label %31

49:                                               ; preds = %47
  invoke void @_ZN6icu_776number5ScaleC1EiPNS0_4impl6DecNumE(ptr noundef nonnull align 8 dereferenceable(20) %0, i32 noundef 0, ptr noundef %48)
          to label %50 unwind label %31

50:                                               ; preds = %49
  store i32 1, ptr %10, align 4
  br label %51

51:                                               ; preds = %50, %46, %23
  call void @_ZN6icu_7712LocalPointerINS_6number4impl6DecNumEED2Ev(ptr noundef nonnull align 8 dereferenceable(8) %6) #10
  call void @llvm.lifetime.end.p0(i64 8, ptr %6) #10
  call void @llvm.lifetime.end.p0(i64 4, ptr %5) #10
  ret void

52:                                               ; preds = %31, %30
  call void @llvm.lifetime.end.p0(i64 8, ptr %6) #10
  call void @llvm.lifetime.end.p0(i64 4, ptr %5) #10
  br label %53

53:                                               ; preds = %52
  %54 = load ptr, ptr %8, align 8
  %55 = load i32, ptr %9, align 4
  %56 = insertvalue { ptr, i32 } poison, ptr %54, 0
  %57 = insertvalue { ptr, i32 } %56, i32 %55, 1
  resume { ptr, i32 } %57
}