; Function Attrs: mustprogress uwtable
define void @_ZN6icu_776number5Scale8byDoubleEd(ptr dead_on_unwind noalias writable sret(%"class.icu_77::number::Scale") align 8 %0, double noundef %1) local_unnamed_addr #1 align 2 personality ptr @__gxx_personality_v0 {
  %3 = alloca i32, align 4
  %4 = alloca %"class.icu_77::LocalPointer", align 8
  call void @llvm.lifetime.start.p0(i64 4, ptr nonnull %3) #13
  store i32 0, ptr %3, align 4, !tbaa !13
  call void @llvm.lifetime.start.p0(i64 8, ptr nonnull %4) #13
  %5 = tail call noundef ptr @_ZN6icu_777UMemorynwEm(i64 noundef 96) #13
  %.not = icmp eq ptr %5, null
  br i1 %.not, label %7, label %6

6:                                                ; preds = %2
  invoke void @_ZN6icu_776number4impl6DecNumC1Ev(ptr noundef nonnull align 8 dereferenceable(92) %5)
          to label %14 unwind label %10

7:                                                ; preds = %2
  store i32 0, ptr %0, align 8, !tbaa !15
  %8 = getelementptr inbounds nuw i8, ptr %0, i64 8
  store ptr null, ptr %8, align 8, !tbaa !18
  %9 = getelementptr inbounds nuw i8, ptr %0, i64 16
  store i32 7, ptr %9, align 8, !tbaa !19
  br label %_ZN6icu_7712LocalPointerINS_6number4impl6DecNumEED2Ev.exit

10:                                               ; preds = %6
  %11 = landingpad { ptr, i32 }
          cleanup
  tail call void @_ZN6icu_777UMemorydlEPv(ptr noundef nonnull %5) #13
  br label %29

12:                                               ; preds = %18, %14
  %13 = landingpad { ptr, i32 }
          cleanup
  call void @_ZN6icu_7712LocalPointerINS_6number4impl6DecNumEED2Ev(ptr noundef nonnull align 8 dereferenceable(8) %4) #13
  br label %29

14:                                               ; preds = %6
  store ptr %5, ptr %4, align 8, !tbaa !27
  invoke void @_ZN6icu_776number4impl6DecNum5setToEdR10UErrorCode(ptr noundef nonnull align 8 dereferenceable(92) %5, double noundef %1, ptr noundef nonnull align 4 dereferenceable(4) %3)
          to label %15 unwind label %12

15:                                               ; preds = %14
  %16 = load i32, ptr %3, align 4, !tbaa !13
  %17 = icmp slt i32 %16, 1
  br i1 %17, label %18, label %19

18:                                               ; preds = %15
  store ptr null, ptr %4, align 8, !tbaa !27
  invoke void @_ZN6icu_776number5ScaleC1EiPNS0_4impl6DecNumE(ptr noundef nonnull align 8 dereferenceable(20) %0, i32 noundef 0, ptr noundef nonnull %5)
          to label %_ZN6icu_7712LocalPointerINS_6number4impl6DecNumEED2Ev.exit unwind label %12

19:                                               ; preds = %15
  store i32 0, ptr %0, align 8, !tbaa !15
  %20 = getelementptr inbounds nuw i8, ptr %0, i64 8
  store ptr null, ptr %20, align 8, !tbaa !18
  %21 = getelementptr inbounds nuw i8, ptr %0, i64 16
  store i32 %16, ptr %21, align 8, !tbaa !19
  %22 = getelementptr inbounds nuw i8, ptr %5, i64 12
  %23 = load i8, ptr %22, align 4, !tbaa !26
  %.not.i.i.i.i = icmp eq i8 %23, 0
  br i1 %.not.i.i.i.i, label %_ZN6icu_776number4impl6DecNumD2Ev.exit.i, label %24

24:                                               ; preds = %19
  %25 = load ptr, ptr %5, align 8, !tbaa !20
  invoke void @uprv_free_77(ptr noundef %25)
          to label %_ZN6icu_776number4impl6DecNumD2Ev.exit.i unwind label %26

26:                                               ; preds = %24
  %27 = landingpad { ptr, i32 }
          catch ptr null
  %28 = extractvalue { ptr, i32 } %27, 0
  call void @__clang_call_terminate(ptr %28) #15
  unreachable

_ZN6icu_776number4impl6DecNumD2Ev.exit.i:         ; preds = %24, %19
  call void @_ZN6icu_777UMemorydlEPv(ptr noundef nonnull %5) #13
  br label %_ZN6icu_7712LocalPointerINS_6number4impl6DecNumEED2Ev.exit

_ZN6icu_7712LocalPointerINS_6number4impl6DecNumEED2Ev.exit: ; preds = %7, %18, %_ZN6icu_776number4impl6DecNumD2Ev.exit.i
  call void @llvm.lifetime.end.p0(i64 8, ptr nonnull %4) #13
  call void @llvm.lifetime.end.p0(i64 4, ptr nonnull %3) #13
  ret void

29:                                               ; preds = %10, %12
  %.pn = phi { ptr, i32 } [ %13, %12 ], [ %11, %10 ]
  call void @llvm.lifetime.end.p0(i64 8, ptr nonnull %4) #13
  call void @llvm.lifetime.end.p0(i64 4, ptr nonnull %3) #13
  resume { ptr, i32 } %.pn
}